target datalayout = "e-m:e-p270:32:32-p271:32:32-p272:64:64-i64:64-i128:128-f80:128-n8:16:32:64-S128"
target triple = "x86_64-pc-linux-gnu"

%"struct.faiss::(anonymous namespace)::NegativeDistanceComputer" = type { %"struct.faiss::DistanceComputer", ptr }
%"struct.faiss::DistanceComputer" = type { ptr }

; Function Attrs: mustprogress uwtable
define internal noundef float @_ZN5faiss12_GLOBAL__N_124NegativeDistanceComputerclEl(ptr noundef nonnull align 8 dereferenceable(16) %0, i64 noundef %1) unnamed_addr #1 align 2 {
  %3 = alloca ptr, align 8
  %4 = alloca i64, align 8
  store ptr %0, ptr %3, align 8
  store i64 %1, ptr %4, align 8
  %5 = load ptr, ptr %3, align 8
  %6 = getelementptr inbounds %"struct.faiss::(anonymous namespace)::NegativeDistanceComputer", ptr %5, i32 0, i32 1
  %7 = load ptr, ptr %6, align 8
  %8 = load i64, ptr %4, align 8
  %9 = load ptr, ptr %7, align 8
  %10 = getelementptr inbounds ptr, ptr %9, i64 1
  %11 = load ptr, ptr %10, align 8
  %12 = call noundef float %11(ptr noundef nonnull align 8 dereferenceable(8) %7, i64 noundef %8)
  %13 = fneg float %12
  ret float %13
}