; Function Attrs: mustprogress uwtable
define internal noundef float @_ZN5faiss12_GLOBAL__N_124NegativeDistanceComputerclEl(ptr nocapture noundef nonnull readonly align 8 dereferenceable(16) %0, i64 noundef %1) unnamed_addr #1 align 2 {
  %3 = getelementptr inbounds i8, ptr %0, i64 8
  %4 = load ptr, ptr %3, align 8
  %5 = load ptr, ptr %4, align 8
  %6 = getelementptr inbounds i8, ptr %5, i64 8
  %7 = load ptr, ptr %6, align 8
  %8 = tail call noundef float %7(ptr noundef nonnull align 8 dereferenceable(8) %4, i64 noundef %1)
  %9 = fneg float %8
  ret float %9
}